; ModuleID = '21/1287.c'
source_filename = "21/1287.c"
target datalayout = "e-m:e-p270:32:32-p271:32:32-p272:64:64-i64:64-f80:128-n8:16:32:64-S128"
target triple = "x86_64-pc-linux-gnu"

@.str = private unnamed_addr constant [3 x i8] c"%d\00", align 1
@.str.1 = private unnamed_addr constant [6 x i8] c"%d,%d\00", align 1

; Function Attrs: noinline nounwind uwtable
define dso_local i32 @main() #0 {
  %1 = alloca i32, align 4
  %2 = alloca i32, align 4
  %3 = alloca [300 x i32], align 16
  %4 = alloca i32, align 4
  %5 = alloca i32, align 4
  %6 = alloca i32, align 4
  %7 = alloca i32, align 4
  %8 = alloca float, align 4
  %9 = alloca [300 x float], align 16
  %10 = alloca float, align 4
  store i32 0, i32* %1, align 4
  %11 = bitcast [300 x i32]* %3 to i8*
  call void @llvm.memset.p0i8.i64(i8* align 16 %11, i8 0, i64 1200, i1 false)
  store i32 0, i32* %6, align 4
  %12 = bitcast [300 x float]* %9 to i8*
  call void @llvm.memset.p0i8.i64(i8* align 16 %12, i8 0, i64 1200, i1 false)
  %13 = call i32 (i8*, ...) @__isoc99_scanf(i8* getelementptr inbounds ([3 x i8], [3 x i8]* @.str, i64 0, i64 0), i32* %2)
  store i32 0, i32* %5, align 4
  br label %14

14:                                               ; preds = %29, %0
  %15 = load i32, i32* %5, align 4
  %16 = load i32, i32* %2, align 4
  %17 = icmp slt i32 %15, %16
  br i1 %17, label %18, label %32

18:                                               ; preds = %14
  %19 = load i32, i32* %5, align 4
  %20 = sext i32 %19 to i64
  %21 = getelementptr inbounds [300 x i32], [300 x i32]* %3, i64 0, i64 %20
  %22 = call i32 (i8*, ...) @__isoc99_scanf(i8* getelementptr inbounds ([3 x i8], [3 x i8]* @.str, i64 0, i64 0), i32* %21)
  %23 = load i32, i32* %5, align 4
  %24 = sext i32 %23 to i64
  %25 = getelementptr inbounds [300 x i32], [300 x i32]* %3, i64 0, i64 %24
  %26 = load i32, i32* %25, align 4
  %27 = load i32, i32* %6, align 4
  %28 = add nsw i32 %27, %26
  store i32 %28, i32* %6, align 4
  br label %29

29:                                               ; preds = %18
  %30 = load i32, i32* %5, align 4
  %31 = add nsw i32 %30, 1
  store i32 %31, i32* %5, align 4
  br label %14

32:                                               ; preds = %14
  %33 = load i32, i32* %6, align 4
  %34 = sitofp i32 %33 to float
  %35 = load i32, i32* %2, align 4
  %36 = sitofp i32 %35 to float
  %37 = fdiv float %34, %36
  store float %37, float* %8, align 4
  store i32 0, i32* %5, align 4
  br label %38

38:                                               ; preds = %73, %32
  %39 = load i32, i32* %5, align 4
  %40 = load i32, i32* %2, align 4
  %41 = icmp slt i32 %39, %40
  br i1 %41, label %42, label %76

42:                                               ; preds = %38
  %43 = load i32, i32* %5, align 4
  %44 = sext i32 %43 to i64
  %45 = getelementptr inbounds [300 x i32], [300 x i32]* %3, i64 0, i64 %44
  %46 = load i32, i32* %45, align 4
  %47 = sitofp i32 %46 to float
  %48 = load float, float* %8, align 4
  %49 = fcmp ogt float %47, %48
  br i1 %49, label %50, label %61

50:                                               ; preds = %42
  %51 = load i32, i32* %5, align 4
  %52 = sext i32 %51 to i64
  %53 = getelementptr inbounds [300 x i32], [300 x i32]* %3, i64 0, i64 %52
  %54 = load i32, i32* %53, align 4
  %55 = sitofp i32 %54 to float
  %56 = load float, float* %8, align 4
  %57 = fsub float %55, %56
  %58 = load i32, i32* %5, align 4
  %59 = sext i32 %58 to i64
  %60 = getelementptr inbounds [300 x float], [300 x float]* %9, i64 0, i64 %59
  store float %57, float* %60, align 4
  br label %72

61:                                               ; preds = %42
  %62 = load float, float* %8, align 4
  %63 = load i32, i32* %5, align 4
  %64 = sext i32 %63 to i64
  %65 = getelementptr inbounds [300 x i32], [300 x i32]* %3, i64 0, i64 %64
  %66 = load i32, i32* %65, align 4
  %67 = sitofp i32 %66 to float
  %68 = fsub float %62, %67
  %69 = load i32, i32* %5, align 4
  %70 = sext i32 %69 to i64
  %71 = getelementptr inbounds [300 x float], [300 x float]* %9, i64 0, i64 %70
  store float %68, float* %71, align 4
  br label %72

72:                                               ; preds = %61, %50
  br label %73

73:                                               ; preds = %72
  %74 = load i32, i32* %5, align 4
  %75 = add nsw i32 %74, 1
  store i32 %75, i32* %5, align 4
  br label %38

76:                                               ; preds = %38
  store i32 1, i32* %5, align 4
  br label %77

77:                                               ; preds = %139, %76
  %78 = load i32, i32* %5, align 4
  %79 = load i32, i32* %2, align 4
  %80 = icmp slt i32 %78, %79
  br i1 %80, label %81, label %142

81:                                               ; preds = %77
  %82 = load i32, i32* %2, align 4
  %83 = sub nsw i32 %82, 1
  store i32 %83, i32* %4, align 4
  br label %84

84:                                               ; preds = %135, %81
  %85 = load i32, i32* %4, align 4
  %86 = load i32, i32* %5, align 4
  %87 = icmp sge i32 %85, %86
  br i1 %87, label %88, label %138

88:                                               ; preds = %84
  %89 = load i32, i32* %4, align 4
  %90 = sub nsw i32 %89, 1
  %91 = sext i32 %90 to i64
  %92 = getelementptr inbounds [300 x float], [300 x float]* %9, i64 0, i64 %91
  %93 = load float, float* %92, align 4
  %94 = load i32, i32* %4, align 4
  %95 = sext i32 %94 to i64
  %96 = getelementptr inbounds [300 x float], [300 x float]* %9, i64 0, i64 %95
  %97 = load float, float* %96, align 4
  %98 = fcmp ogt float %93, %97
  br i1 %98, label %99, label %134

99:                                               ; preds = %88
  %100 = load i32, i32* %4, align 4
  %101 = sext i32 %100 to i64
  %102 = getelementptr inbounds [300 x float], [300 x float]* %9, i64 0, i64 %101
  %103 = load float, float* %102, align 4
  store float %103, float* %10, align 4
  %104 = load i32, i32* %4, align 4
  %105 = sub nsw i32 %104, 1
  %106 = sext i32 %105 to i64
  %107 = getelementptr inbounds [300 x float], [300 x float]* %9, i64 0, i64 %106
  %108 = load float, float* %107, align 4
  %109 = load i32, i32* %4, align 4
  %110 = sext i32 %109 to i64
  %111 = getelementptr inbounds [300 x float], [300 x float]* %9, i64 0, i64 %110
  store float %108, float* %111, align 4
  %112 = load float, float* %10, align 4
  %113 = load i32, i32* %4, align 4
  %114 = sub nsw i32 %113, 1
  %115 = sext i32 %114 to i64
  %116 = getelementptr inbounds [300 x float], [300 x float]* %9, i64 0, i64 %115
  store float %112, float* %116, align 4
  %117 = load i32, i32* %4, align 4
  %118 = sext i32 %117 to i64
  %119 = getelementptr inbounds [300 x i32], [300 x i32]* %3, i64 0, i64 %118
  %120 = load i32, i32* %119, align 4
  store i32 %120, i32* %7, align 4
  %121 = load i32, i32* %4, align 4
  %122 = sub nsw i32 %121, 1
  %123 = sext i32 %122 to i64
  %124 = getelementptr inbounds [300 x i32], [300 x i32]* %3, i64 0, i64 %123
  %125 = load i32, i32* %124, align 4
  %126 = load i32, i32* %4, align 4
  %127 = sext i32 %126 to i64
  %128 = getelementptr inbounds [300 x i32], [300 x i32]* %3, i64 0, i64 %127
  store i32 %125, i32* %128, align 4
  %129 = load i32, i32* %7, align 4
  %130 = load i32, i32* %4, align 4
  %131 = sub nsw i32 %130, 1
  %132 = sext i32 %131 to i64
  %133 = getelementptr inbounds [300 x i32], [300 x i32]* %3, i64 0, i64 %132
  store i32 %129, i32* %133, align 4
  br label %134

134:                                              ; preds = %99, %88
  br label %135

135:                                              ; preds = %134
  %136 = load i32, i32* %4, align 4
  %137 = add nsw i32 %136, -1
  store i32 %137, i32* %4, align 4
  br label %84

138:                                              ; preds = %84
  br label %139

139:                                              ; preds = %138
  %140 = load i32, i32* %5, align 4
  %141 = add nsw i32 %140, 1
  store i32 %141, i32* %5, align 4
  br label %77

142:                                              ; preds = %77
  %143 = load i32, i32* %2, align 4
  %144 = sub nsw i32 %143, 1
  %145 = sext i32 %144 to i64
  %146 = getelementptr inbounds [300 x float], [300 x float]* %9, i64 0, i64 %145
  %147 = load float, float* %146, align 4
  %148 = load i32, i32* %2, align 4
  %149 = sub nsw i32 %148, 2
  %150 = sext i32 %149 to i64
  %151 = getelementptr inbounds [300 x float], [300 x float]* %9, i64 0, i64 %150
  %152 = load float, float* %151, align 4
  %153 = fcmp oeq float %147, %152
  br i1 %153, label %154, label %198

154:                                              ; preds = %142
  %155 = load i32, i32* %2, align 4
  %156 = sub nsw i32 %155, 2
  %157 = sext i32 %156 to i64
  %158 = getelementptr inbounds [300 x i32], [300 x i32]* %3, i64 0, i64 %157
  %159 = load i32, i32* %158, align 4
  %160 = load i32, i32* %2, align 4
  %161 = sub nsw i32 %160, 1
  %162 = sext i32 %161 to i64
  %163 = getelementptr inbounds [300 x i32], [300 x i32]* %3, i64 0, i64 %162
  %164 = load i32, i32* %163, align 4
  %165 = icmp sgt i32 %159, %164
  br i1 %165, label %166, label %186

166:                                              ; preds = %154
  %167 = load i32, i32* %2, align 4
  %168 = sub nsw i32 %167, 1
  %169 = sext i32 %168 to i64
  %170 = getelementptr inbounds [300 x i32], [300 x i32]* %3, i64 0, i64 %169
  %171 = load i32, i32* %170, align 4
  store i32 %171, i32* %7, align 4
  %172 = load i32, i32* %2, align 4
  %173 = sub nsw i32 %172, 2
  %174 = sext i32 %173 to i64
  %175 = getelementptr inbounds [300 x i32], [300 x i32]* %3, i64 0, i64 %174
  %176 = load i32, i32* %175, align 4
  %177 = load i32, i32* %2, align 4
  %178 = sub nsw i32 %177, 1
  %179 = sext i32 %178 to i64
  %180 = getelementptr inbounds [300 x i32], [300 x i32]* %3, i64 0, i64 %179
  store i32 %176, i32* %180, align 4
  %181 = load i32, i32* %7, align 4
  %182 = load i32, i32* %2, align 4
  %183 = sub nsw i32 %182, 2
  %184 = sext i32 %183 to i64
  %185 = getelementptr inbounds [300 x i32], [300 x i32]* %3, i64 0, i64 %184
  store i32 %181, i32* %185, align 4
  br label %186

186:                                              ; preds = %166, %154
  %187 = load i32, i32* %2, align 4
  %188 = sub nsw i32 %187, 2
  %189 = sext i32 %188 to i64
  %190 = getelementptr inbounds [300 x i32], [300 x i32]* %3, i64 0, i64 %189
  %191 = load i32, i32* %190, align 4
  %192 = load i32, i32* %2, align 4
  %193 = sub nsw i32 %192, 1
  %194 = sext i32 %193 to i64
  %195 = getelementptr inbounds [300 x i32], [300 x i32]* %3, i64 0, i64 %194
  %196 = load i32, i32* %195, align 4
  %197 = call i32 (i8*, ...) @printf(i8* getelementptr inbounds ([6 x i8], [6 x i8]* @.str.1, i64 0, i64 0), i32 %191, i32 %196)
  br label %205

198:                                              ; preds = %142
  %199 = load i32, i32* %2, align 4
  %200 = sub nsw i32 %199, 1
  %201 = sext i32 %200 to i64
  %202 = getelementptr inbounds [300 x i32], [300 x i32]* %3, i64 0, i64 %201
  %203 = load i32, i32* %202, align 4
  %204 = call i32 (i8*, ...) @printf(i8* getelementptr inbounds ([3 x i8], [3 x i8]* @.str, i64 0, i64 0), i32 %203)
  br label %205

205:                                              ; preds = %198, %186
  ret i32 0
}

; Function Attrs: argmemonly nounwind willreturn
declare void @llvm.memset.p0i8.i64(i8* nocapture writeonly, i8, i64, i1 immarg) #1

declare dso_local i32 @__isoc99_scanf(i8*, ...) #2

declare dso_local i32 @printf(i8*, ...) #2


!llvm.module.flags = !{!0}
!llvm.ident = !{!1}

!0 = !{i32 1, !"wchar_size", i32 4}
!1 = !{!"clang version 10.0.0-4ubuntu1 "}
